target datalayout = "e-m:e-p270:32:32-p271:32:32-p272:64:64-i64:64-i128:128-f80:128-n8:16:32:64-S128"
target triple = "x86_64-unknown-linux-gnu"

%"class.google::protobuf::compiler::java::ImmutableMessageFieldLiteGenerator" = type { %"class.google::protobuf::compiler::java::ImmutableFieldLiteGenerator", ptr, %"class.absl::lts_20230802::flat_hash_map", i32, ptr, ptr }
%"class.google::protobuf::compiler::java::ImmutableFieldLiteGenerator" = type { ptr }
%"class.absl::lts_20230802::flat_hash_map" = type { %"class.absl::lts_20230802::container_internal::raw_hash_map" }
%"class.absl::lts_20230802::container_internal::raw_hash_map" = type { %"class.absl::lts_20230802::container_internal::raw_hash_set" }
%"class.absl::lts_20230802::container_internal::raw_hash_set" = type { %"class.absl::lts_20230802::container_internal::CompressedTuple" }
%"class.absl::lts_20230802::container_internal::CompressedTuple" = type { %"struct.absl::lts_20230802::container_internal::internal_compressed_tuple::CompressedTupleImpl" }
%"struct.absl::lts_20230802::container_internal::internal_compressed_tuple::CompressedTupleImpl" = type { %"struct.absl::lts_20230802::container_internal::internal_compressed_tuple::Storage" }
%"struct.absl::lts_20230802::container_internal::internal_compressed_tuple::Storage" = type { %"class.absl::lts_20230802::container_internal::CommonFields" }
%"class.absl::lts_20230802::container_internal::CommonFields" = type { ptr, ptr, i64, %"class.absl::lts_20230802::container_internal::CompressedTuple.0" }
%"class.absl::lts_20230802::container_internal::CompressedTuple.0" = type { %"struct.absl::lts_20230802::container_internal::internal_compressed_tuple::CompressedTupleImpl.1" }
%"struct.absl::lts_20230802::container_internal::internal_compressed_tuple::CompressedTupleImpl.1" = type { %"struct.absl::lts_20230802::container_internal::internal_compressed_tuple::Storage.2" }
%"struct.absl::lts_20230802::container_internal::internal_compressed_tuple::Storage.2" = type { i64 }
%"class.std::basic_string_view" = type { i64, ptr }
%"class.google::protobuf::FieldDescriptor" = type { %"class.google::protobuf::internal::SymbolBase", i8, i8, i8, i32, ptr, ptr, ptr, ptr, %union.anon.67, %union.anon.68, ptr, ptr, ptr, %union.anon.69 }
%"class.google::protobuf::internal::SymbolBase" = type { i8 }
%union.anon.67 = type { ptr }
%union.anon.68 = type { ptr }
%union.anon.69 = type { i64 }
%"class.google::protobuf::OneofDescriptor" = type { %"class.google::protobuf::internal::SymbolBase", i32, ptr, ptr, ptr, ptr, ptr, ptr }
%"class.absl::lts_20230802::log_internal::NullStream" = type { i8 }

@.str.20 = private unnamed_addr constant [95 x i8] c"public val $classname$Kt.Dsl.$name$OrNull: $kt_type$?\0A  get() = $kt_dsl_builder$.$name$OrNull\0A\00", align 1

; Function Attrs: mustprogress nounwind uwtable
define linkonce_odr hidden noundef nonnull align 1 dereferenceable(1) ptr @_ZN4absl12lts_2023080212log_internal10NullStream14InternalStreamEv(ptr noundef nonnull align 1 dereferenceable(1) %this) #5 comdat align 2 {
entry:
  %this.addr = alloca ptr, align 8
  store ptr %this, ptr %this.addr, align 8
  %this1 = load ptr, ptr %this.addr, align 8
  ret ptr %this1
}

; Function Attrs: mustprogress uwtable
define linkonce_odr hidden noundef ptr @_ZNK6google8protobuf15OneofDescriptor5fieldEi(ptr noundef nonnull align 8 dereferenceable(56) %this, i32 noundef %index) #4 comdat align 2 {
entry:
  %this.addr = alloca ptr, align 8
  %index.addr = alloca i32, align 4
  %ref.tmp = alloca %"class.absl::lts_20230802::log_internal::NullStream", align 1
  %ref.tmp4 = alloca %"class.absl::lts_20230802::log_internal::NullStream", align 1
  store ptr %this, ptr %this.addr, align 8
  store i32 %index, ptr %index.addr, align 4
  %this1 = load ptr, ptr %this.addr, align 8
  br label %while.cond

while.cond:                                       ; preds = %while.body, %entry
  br i1 false, label %while.body, label %while.end

while.body:                                       ; preds = %while.cond
  %call = call noundef nonnull align 1 dereferenceable(1) ptr @_ZN4absl12lts_2023080212log_internal10NullStream14InternalStreamEv(ptr noundef nonnull align 1 dereferenceable(1) %ref.tmp)
  br label %while.cond, !llvm.loop !20

while.end:                                        ; preds = %while.cond
  br label %while.cond2

while.cond2:                                      ; preds = %while.body3, %while.end
  br i1 false, label %while.body3, label %while.end6

while.body3:                                      ; preds = %while.cond2
  %call5 = call noundef nonnull align 1 dereferenceable(1) ptr @_ZN4absl12lts_2023080212log_internal10NullStream14InternalStreamEv(ptr noundef nonnull align 1 dereferenceable(1) %ref.tmp4)
  br label %while.cond2, !llvm.loop !21

while.end6:                                       ; preds = %while.cond2
  %fields_ = getelementptr inbounds %"class.google::protobuf::OneofDescriptor", ptr %this1, i32 0, i32 7
  %0 = load ptr, ptr %fields_, align 8
  %1 = load i32, ptr %index.addr, align 4
  %idx.ext = sext i32 %1 to i64
  %add.ptr = getelementptr inbounds %"class.google::protobuf::FieldDescriptor", ptr %0, i64 %idx.ext
  ret ptr %add.ptr
}

; Function Attrs: mustprogress nounwind uwtable
define linkonce_odr hidden noundef i32 @_ZNK6google8protobuf15OneofDescriptor11field_countEv(ptr noundef nonnull align 8 dereferenceable(56) %this) #5 comdat align 2 {
entry:
  %this.addr = alloca ptr, align 8
  store ptr %this, ptr %this.addr, align 8
  %this1 = load ptr, ptr %this.addr, align 8
  %field_count_ = getelementptr inbounds %"class.google::protobuf::OneofDescriptor", ptr %this1, i32 0, i32 1
  %0 = load i32, ptr %field_count_, align 4
  ret i32 %0
}

; Function Attrs: mustprogress nounwind uwtable
define linkonce_odr hidden noundef i64 @_ZNSt11char_traitsIcE6lengthEPKc(ptr noundef %__s) #5 comdat align 2 {
entry:
  %__s.addr = alloca ptr, align 8
  store ptr %__s, ptr %__s.addr, align 8
  %0 = load ptr, ptr %__s.addr, align 8
  %call = call i64 @strlen(ptr noundef %0) #3
  ret i64 %call
}

; Function Attrs: mustprogress uwtable
define linkonce_odr hidden noundef zeroext i1 @_ZNK6google8protobuf15OneofDescriptor12is_syntheticEv(ptr noundef nonnull align 8 dereferenceable(56) %this) #4 comdat align 2 {
entry:
  %this.addr = alloca ptr, align 8
  store ptr %this, ptr %this.addr, align 8
  %this1 = load ptr, ptr %this.addr, align 8
  %call = call noundef i32 @_ZNK6google8protobuf15OneofDescriptor11field_countEv(ptr noundef nonnull align 8 dereferenceable(56) %this1)
  %cmp = icmp eq i32 %call, 1
  br i1 %cmp, label %land.rhs, label %land.end

land.rhs:                                         ; preds = %entry
  %call2 = call noundef ptr @_ZNK6google8protobuf15OneofDescriptor5fieldEi(ptr noundef nonnull align 8 dereferenceable(56) %this1, i32 noundef 0)
  %proto3_optional_ = getelementptr inbounds %"class.google::protobuf::FieldDescriptor", ptr %call2, i32 0, i32 1
  %bf.load = load i8, ptr %proto3_optional_, align 1
  %bf.lshr = lshr i8 %bf.load, 1
  %bf.clear = and i8 %bf.lshr, 1
  %bf.cast = trunc i8 %bf.clear to i1
  br label %land.end

land.end:                                         ; preds = %land.rhs, %entry
  %0 = phi i1 [ false, %entry ], [ %bf.cast, %land.rhs ]
  ret i1 %0
}

; Function Attrs: mustprogress nounwind uwtable
define linkonce_odr hidden noundef ptr @_ZNK6google8protobuf15FieldDescriptor16containing_oneofEv(ptr noundef nonnull align 8 dereferenceable(88) %this) #5 comdat align 2 {
entry:
  %this.addr = alloca ptr, align 8
  store ptr %this, ptr %this.addr, align 8
  %this1 = load ptr, ptr %this.addr, align 8
  %is_oneof_ = getelementptr inbounds %"class.google::protobuf::FieldDescriptor", ptr %this1, i32 0, i32 1
  %bf.load = load i8, ptr %is_oneof_, align 1
  %bf.lshr = lshr i8 %bf.load, 4
  %bf.clear = and i8 %bf.lshr, 1
  %bf.cast = trunc i8 %bf.clear to i1
  br i1 %bf.cast, label %cond.true, label %cond.false

cond.true:                                        ; preds = %entry
  %scope_ = getelementptr inbounds %"class.google::protobuf::FieldDescriptor", ptr %this1, i32 0, i32 9
  %0 = load ptr, ptr %scope_, align 8
  br label %cond.end

cond.false:                                       ; preds = %entry
  br label %cond.end

cond.end:                                         ; preds = %cond.false, %cond.true
  %cond = phi ptr [ %0, %cond.true ], [ null, %cond.false ]
  ret ptr %cond
}

; Function Attrs: mustprogress nounwind uwtable
define linkonce_odr hidden void @_ZNSt17basic_string_viewIcSt11char_traitsIcEEC2EPKc(ptr noundef nonnull align 8 dereferenceable(16) %this, ptr noundef nonnull %__str) unnamed_addr #5 comdat align 2 {
entry:
  %this.addr = alloca ptr, align 8
  %__str.addr = alloca ptr, align 8
  store ptr %this, ptr %this.addr, align 8
  store ptr %__str, ptr %__str.addr, align 8
  %this1 = load ptr, ptr %this.addr, align 8
  %_M_len = getelementptr inbounds %"class.std::basic_string_view", ptr %this1, i32 0, i32 0
  %0 = load ptr, ptr %__str.addr, align 8
  %call = call noundef i64 @_ZNSt11char_traitsIcE6lengthEPKc(ptr noundef %0)
  store i64 %call, ptr %_M_len, align 8
  %_M_str = getelementptr inbounds %"class.std::basic_string_view", ptr %this1, i32 0, i32 1
  %1 = load ptr, ptr %__str.addr, align 8
  store ptr %1, ptr %_M_str, align 8
  ret void
}

; Function Attrs: mustprogress uwtable
define linkonce_odr hidden noundef ptr @_ZNK6google8protobuf15FieldDescriptor21real_containing_oneofEv(ptr noundef nonnull align 8 dereferenceable(88) %this) #4 comdat align 2 {
entry:
  %this.addr = alloca ptr, align 8
  %oneof = alloca ptr, align 8
  store ptr %this, ptr %this.addr, align 8
  %this1 = load ptr, ptr %this.addr, align 8
  %call = call noundef ptr @_ZNK6google8protobuf15FieldDescriptor16containing_oneofEv(ptr noundef nonnull align 8 dereferenceable(88) %this1)
  store ptr %call, ptr %oneof, align 8
  %0 = load ptr, ptr %oneof, align 8
  %tobool = icmp ne ptr %0, null
  br i1 %tobool, label %land.lhs.true, label %cond.false

land.lhs.true:                                    ; preds = %entry
  %1 = load ptr, ptr %oneof, align 8
  %call2 = call noundef zeroext i1 @_ZNK6google8protobuf15OneofDescriptor12is_syntheticEv(ptr noundef nonnull align 8 dereferenceable(56) %1)
  br i1 %call2, label %cond.false, label %cond.true

cond.true:                                        ; preds = %land.lhs.true
  %2 = load ptr, ptr %oneof, align 8
  br label %cond.end

cond.false:                                       ; preds = %land.lhs.true, %entry
  br label %cond.end

cond.end:                                         ; preds = %cond.false, %cond.true
  %cond = phi ptr [ %2, %cond.true ], [ null, %cond.false ]
  ret ptr %cond
}

; Function Attrs: mustprogress uwtable
define hidden void @_ZNK6google8protobuf8compiler4java34ImmutableMessageFieldLiteGenerator20GenerateKotlinOrNullEPNS0_2io7PrinterE(ptr noundef nonnull align 8 dereferenceable(72) %this, ptr noundef %printer) #4 align 2 {
entry:
  %this.addr = alloca ptr, align 8
  %printer.addr = alloca ptr, align 8
  %agg.tmp = alloca %"class.std::basic_string_view", align 8
  store ptr %this, ptr %this.addr, align 8
  store ptr %printer, ptr %printer.addr, align 8
  %this1 = load ptr, ptr %this.addr, align 8
  %descriptor_ = getelementptr inbounds %"class.google::protobuf::compiler::java::ImmutableMessageFieldLiteGenerator", ptr %this1, i32 0, i32 1
  %0 = load ptr, ptr %descriptor_, align 8
  %call = call noundef zeroext i1 @_ZNK6google8protobuf15FieldDescriptor12has_presenceEv(ptr noundef nonnull align 8 dereferenceable(88) %0)
  br i1 %call, label %land.lhs.true, label %if.end

land.lhs.true:                                    ; preds = %entry
  %descriptor_2 = getelementptr inbounds %"class.google::protobuf::compiler::java::ImmutableMessageFieldLiteGenerator", ptr %this1, i32 0, i32 1
  %1 = load ptr, ptr %descriptor_2, align 8
  %call3 = call noundef ptr @_ZNK6google8protobuf15FieldDescriptor21real_containing_oneofEv(ptr noundef nonnull align 8 dereferenceable(88) %1)
  %cmp = icmp eq ptr %call3, null
  br i1 %cmp, label %if.then, label %if.end

if.then:                                          ; preds = %land.lhs.true
  %2 = load ptr, ptr %printer.addr, align 8
  %variables_ = getelementptr inbounds %"class.google::protobuf::compiler::java::ImmutableMessageFieldLiteGenerator", ptr %this1, i32 0, i32 2
  call void @_ZNSt17basic_string_viewIcSt11char_traitsIcEEC2EPKc(ptr noundef nonnull align 8 dereferenceable(16) %agg.tmp, ptr noundef @.str.20) #3
  %3 = getelementptr inbounds { i64, ptr }, ptr %agg.tmp, i32 0, i32 0
  %4 = load i64, ptr %3, align 8
  %5 = getelementptr inbounds { i64, ptr }, ptr %agg.tmp, i32 0, i32 1
  %6 = load ptr, ptr %5, align 8
  call void @_ZN6google8protobuf2io7Printer5PrintIN4absl12lts_2023080213flat_hash_mapISt17basic_string_viewIcSt11char_traitsIcEENSt7__cxx1112basic_stringIcS9_SaIcEEENS5_18container_internal10StringHashENSF_8StringEqESaISt4pairIKSA_SE_EEEEEEvRKT_SA_(ptr noundef nonnull align 8 dereferenceable(256) %2, ptr noundef nonnull align 8 dereferenceable(32) %variables_, i64 %4, ptr %6)
  br label %if.end

if.end:                                           ; preds = %if.then, %land.lhs.true, %entry
  ret void
}