; Function Attrs: mustprogress uwtable
define hidden void @_ZNK6google8protobuf8compiler4java34ImmutableMessageFieldLiteGenerator20GenerateKotlinOrNullEPNS0_2io7PrinterE(ptr noundef nonnull align 8 dereferenceable(72) %this, ptr noundef %printer) local_unnamed_addr #3 align 2 {
entry:
  %descriptor_ = getelementptr inbounds i8, ptr %this, i64 8
  %0 = load ptr, ptr %descriptor_, align 8
  %call = tail call noundef zeroext i1 @_ZNK6google8protobuf15FieldDescriptor12has_presenceEv(ptr noundef nonnull align 8 dereferenceable(88) %0)
  br i1 %call, label %land.lhs.true, label %if.end

land.lhs.true:                                    ; preds = %entry
  %1 = load ptr, ptr %descriptor_, align 8
  %is_oneof_.i.i = getelementptr inbounds i8, ptr %1, i64 1
  %bf.load.i.i = load i8, ptr %is_oneof_.i.i, align 1
  %2 = and i8 %bf.load.i.i, 16
  %bf.cast.not.i.i = icmp eq i8 %2, 0
  %scope_.i.i = getelementptr inbounds i8, ptr %1, i64 40
  %3 = load ptr, ptr %scope_.i.i, align 8
  %tobool.not5.i = icmp eq ptr %3, null
  %tobool.not.i = select i1 %bf.cast.not.i.i, i1 true, i1 %tobool.not5.i
  br i1 %tobool.not.i, label %if.then, label %land.lhs.true.i

land.lhs.true.i:                                  ; preds = %land.lhs.true
  %field_count_.i.i.i = getelementptr inbounds i8, ptr %3, i64 4
  %4 = load i32, ptr %field_count_.i.i.i, align 4
  %cmp.i.i = icmp eq i32 %4, 1
  br i1 %cmp.i.i, label %_ZNK6google8protobuf15OneofDescriptor12is_syntheticEv.exit.i, label %if.end

_ZNK6google8protobuf15OneofDescriptor12is_syntheticEv.exit.i: ; preds = %land.lhs.true.i
  %fields_.i.i.i = getelementptr inbounds i8, ptr %3, i64 48
  %5 = load ptr, ptr %fields_.i.i.i, align 8
  %proto3_optional_.i.i = getelementptr inbounds i8, ptr %5, i64 1
  %bf.load.i3.i = load i8, ptr %proto3_optional_.i.i, align 1
  %bf.load.i3.fr.i = freeze i8 %bf.load.i3.i
  %6 = and i8 %bf.load.i3.fr.i, 2
  %bf.cast.i.not.i = icmp eq i8 %6, 0
  br i1 %bf.cast.i.not.i, label %if.end, label %if.then

if.then:                                          ; preds = %land.lhs.true, %_ZNK6google8protobuf15OneofDescriptor12is_syntheticEv.exit.i
  %variables_ = getelementptr inbounds i8, ptr %this, i64 16
  tail call void @_ZN6google8protobuf2io7Printer5PrintIN4absl12lts_2023080213flat_hash_mapISt17basic_string_viewIcSt11char_traitsIcEENSt7__cxx1112basic_stringIcS9_SaIcEEENS5_18container_internal10StringHashENSF_8StringEqESaISt4pairIKSA_SE_EEEEEEvRKT_SA_(ptr noundef nonnull align 8 dereferenceable(256) %printer, ptr noundef nonnull align 8 dereferenceable(32) %variables_, i64 94, ptr nonnull @.str.20)
  br label %if.end

if.end:                                           ; preds = %_ZNK6google8protobuf15OneofDescriptor12is_syntheticEv.exit.i, %land.lhs.true.i, %if.then, %entry
  ret void
}